target datalayout = "e-m:e-p270:32:32-p271:32:32-p272:64:64-i64:64-i128:128-f80:128-n8:16:32:64-S128"
target triple = "x86_64-pc-linux-gnu"

%struct._php_stream = type { ptr, ptr, %struct._php_stream_filter_chain, %struct._php_stream_filter_chain, ptr, ptr, %struct._zval_struct, i16, [16 x i8], i32, ptr, ptr, ptr, ptr, i64, ptr, i64, i64, i64, i64, ptr }
%struct._php_stream_filter_chain = type { ptr, ptr, ptr }
%struct._zval_struct = type { %union._zend_value, %union.anon, %union.anon.2 }
%union._zend_value = type { i64 }
%union.anon = type { i32 }
%union.anon.2 = type { i32 }
%struct.php_stream_memory_data = type { ptr, i64, i32 }
%struct._zend_refcounted_h = type { i32, %union.anon.3 }
%union.anon.3 = type { i32 }

; Function Attrs: nounwind uwtable
define internal i32 @php_stream_memory_close(ptr noundef %0, i32 noundef %1) #0 {
  %3 = alloca ptr, align 8
  %4 = alloca i32, align 4
  %5 = alloca i32, align 4
  %6 = alloca ptr, align 8
  %7 = alloca ptr, align 8
  %8 = alloca i32, align 4
  %9 = alloca ptr, align 8
  store ptr %0, ptr %7, align 8
  store i32 %1, ptr %8, align 4
  %10 = load ptr, ptr %7, align 8
  %11 = getelementptr inbounds %struct._php_stream, ptr %10, i32 0, i32 1
  %12 = load ptr, ptr %11, align 8
  store ptr %12, ptr %9, align 8
  %13 = load ptr, ptr %9, align 8
  %14 = icmp ne ptr %13, null
  call void @llvm.assume(i1 %14)
  %15 = load ptr, ptr %9, align 8
  %16 = getelementptr inbounds %struct.php_stream_memory_data, ptr %15, i32 0, i32 0
  %17 = load ptr, ptr %16, align 8
  store ptr %17, ptr %6, align 8
  %18 = load ptr, ptr %6, align 8
  %19 = getelementptr inbounds %struct._zend_refcounted_h, ptr %18, i32 0, i32 1
  %20 = load i32, ptr %19, align 4
  store i32 %20, ptr %4, align 4
  %21 = load i32, ptr %4, align 4
  %22 = and i32 %21, 1008
  %23 = and i32 %22, 64
  %24 = icmp ne i32 %23, 0
  br i1 %24, label %48, label %25

25:                                               ; preds = %2
  %26 = load ptr, ptr %6, align 8
  store ptr %26, ptr %3, align 8
  %27 = load ptr, ptr %3, align 8
  %28 = load i32, ptr %27, align 4
  %29 = icmp ugt i32 %28, 0
  call void @llvm.assume(i1 %29)
  %30 = load ptr, ptr %3, align 8
  %31 = load i32, ptr %30, align 4
  %32 = add i32 %31, -1
  store i32 %32, ptr %30, align 4
  %33 = icmp eq i32 %32, 0
  br i1 %33, label %34, label %47

34:                                               ; preds = %25
  %35 = load ptr, ptr %6, align 8
  %36 = getelementptr inbounds %struct._zend_refcounted_h, ptr %35, i32 0, i32 1
  %37 = load i32, ptr %36, align 4
  store i32 %37, ptr %5, align 4
  %38 = load i32, ptr %5, align 4
  %39 = and i32 %38, 1008
  %40 = and i32 %39, 128
  %41 = icmp ne i32 %40, 0
  br i1 %41, label %42, label %44

42:                                               ; preds = %34
  %43 = load ptr, ptr %6, align 8
  call void @free(ptr noundef %43) #13
  br label %46

44:                                               ; preds = %34
  %45 = load ptr, ptr %6, align 8
  call void @_efree(ptr noundef %45) #13
  br label %46

46:                                               ; preds = %44, %42
  br label %47

47:                                               ; preds = %46, %25
  br label %48

48:                                               ; preds = %47, %2
  %49 = load ptr, ptr %9, align 8
  call void @_efree(ptr noundef %49)
  ret i32 0
}