; Function Attrs: nounwind uwtable
define internal noundef i32 @php_stream_memory_close(ptr nocapture noundef readonly %0, i32 %1) #0 {
  %3 = getelementptr inbounds i8, ptr %0, i64 8
  %4 = load ptr, ptr %3, align 8, !nonnull !4, !noundef !4
  %5 = load ptr, ptr %4, align 8
  %6 = getelementptr inbounds i8, ptr %5, i64 4
  %7 = load i32, ptr %6, align 4
  %8 = and i32 %7, 64
  %.not = icmp eq i32 %8, 0
  br i1 %.not, label %9, label %18

9:                                                ; preds = %2
  %10 = load i32, ptr %5, align 4
  %11 = icmp ne i32 %10, 0
  tail call void @llvm.assume(i1 %11)
  %12 = add i32 %10, -1
  store i32 %12, ptr %5, align 4
  %13 = icmp eq i32 %12, 0
  br i1 %13, label %14, label %18

14:                                               ; preds = %9
  %15 = and i32 %7, 128
  %.not12 = icmp eq i32 %15, 0
  br i1 %.not12, label %17, label %16

16:                                               ; preds = %14
  tail call void @free(ptr noundef nonnull %5) #20
  br label %18

17:                                               ; preds = %14
  tail call void @_efree(ptr noundef nonnull %5) #20
  br label %18

18:                                               ; preds = %9, %17, %16, %2
  tail call void @_efree(ptr noundef nonnull %4) #20
  ret i32 0
}